
/home/furiosa/ysyx-workbench/am-kernels/kernels/yield-os/build/yield-os-riscv32e-npc.elf:     file format elf32-littleriscv


Disassembly of section .text:

80000000 <_start>:
80000000:	00000413          	li	s0,0
80000004:	00021117          	auipc	sp,0x21
80000008:	ffc10113          	addi	sp,sp,-4 # 80021000 <_end>
8000000c:	184000ef          	jal	ra,80000190 <_trm_init>

80000010 <schedule>:
80000010:	00001717          	auipc	a4,0x1
80000014:	af870713          	addi	a4,a4,-1288 # 80000b08 <current>
80000018:	00072683          	lw	a3,0(a4)
8000001c:	00001617          	auipc	a2,0x1
80000020:	af060613          	addi	a2,a2,-1296 # 80000b0c <pcb>
80000024:	00009797          	auipc	a5,0x9
80000028:	ae878793          	addi	a5,a5,-1304 # 80008b0c <pcb+0x8000>
8000002c:	00b6a023          	sw	a1,0(a3)
80000030:	00c68463          	beq	a3,a2,80000038 <schedule+0x28>
80000034:	00060793          	mv	a5,a2
80000038:	0007a503          	lw	a0,0(a5)
8000003c:	00f72023          	sw	a5,0(a4)
80000040:	00008067          	ret

80000044 <f>:
80000044:	ff410113          	addi	sp,sp,-12
80000048:	00112423          	sw	ra,8(sp)
8000004c:	00812223          	sw	s0,4(sp)
80000050:	00200713          	li	a4,2
80000054:	00050793          	mv	a5,a0
80000058:	00a77463          	bgeu	a4,a0,80000060 <f+0x1c>
8000005c:	00000793          	li	a5,0
80000060:	00001417          	auipc	s0,0x1
80000064:	98c40413          	addi	s0,s0,-1652 # 800009ec <_etext+0x14>
80000068:	00f40433          	add	s0,s0,a5
8000006c:	00001517          	auipc	a0,0x1
80000070:	96c50513          	addi	a0,a0,-1684 # 800009d8 <_etext>
80000074:	03d000ef          	jal	ra,800008b0 <printf>
80000078:	00044503          	lbu	a0,0(s0)
8000007c:	100000ef          	jal	ra,8000017c <putch>
80000080:	00001517          	auipc	a0,0x1
80000084:	96050513          	addi	a0,a0,-1696 # 800009e0 <_etext+0x8>
80000088:	029000ef          	jal	ra,800008b0 <printf>
8000008c:	22c000ef          	jal	ra,800002b8 <yield>
80000090:	fddff06f          	j	8000006c <f+0x28>

80000094 <main>:
80000094:	fe410113          	addi	sp,sp,-28
80000098:	00000517          	auipc	a0,0x0
8000009c:	f7850513          	addi	a0,a0,-136 # 80000010 <schedule>
800000a0:	00112c23          	sw	ra,24(sp)
800000a4:	00812a23          	sw	s0,20(sp)
800000a8:	00912823          	sw	s1,16(sp)
800000ac:	00009417          	auipc	s0,0x9
800000b0:	a6040413          	addi	s0,s0,-1440 # 80008b0c <pcb+0x8000>
800000b4:	1c0000ef          	jal	ra,80000274 <cte_init>
800000b8:	00001497          	auipc	s1,0x1
800000bc:	a5448493          	addi	s1,s1,-1452 # 80000b0c <pcb>
800000c0:	00040593          	mv	a1,s0
800000c4:	00100693          	li	a3,1
800000c8:	00000617          	auipc	a2,0x0
800000cc:	f7c60613          	addi	a2,a2,-132 # 80000044 <f>
800000d0:	00048513          	mv	a0,s1
800000d4:	1c0000ef          	jal	ra,80000294 <kcontext>
800000d8:	00050793          	mv	a5,a0
800000dc:	00001517          	auipc	a0,0x1
800000e0:	98850513          	addi	a0,a0,-1656 # 80000a64 <_etext+0x8c>
800000e4:	00f4a023          	sw	a5,0(s1)
800000e8:	7c8000ef          	jal	ra,800008b0 <printf>
800000ec:	00200693          	li	a3,2
800000f0:	00000617          	auipc	a2,0x0
800000f4:	f5460613          	addi	a2,a2,-172 # 80000044 <f>
800000f8:	00011597          	auipc	a1,0x11
800000fc:	a1458593          	addi	a1,a1,-1516 # 80010b0c <pcb_boot>
80000100:	00040513          	mv	a0,s0
80000104:	190000ef          	jal	ra,80000294 <kcontext>
80000108:	00050793          	mv	a5,a0
8000010c:	00f42023          	sw	a5,0(s0)
80000110:	00001517          	auipc	a0,0x1
80000114:	95c50513          	addi	a0,a0,-1700 # 80000a6c <_etext+0x94>
80000118:	798000ef          	jal	ra,800008b0 <printf>
8000011c:	19c000ef          	jal	ra,800002b8 <yield>
80000120:	00001417          	auipc	s0,0x1
80000124:	8d040413          	addi	s0,s0,-1840 # 800009f0 <_etext+0x18>
80000128:	04100513          	li	a0,65
8000012c:	00140413          	addi	s0,s0,1
80000130:	04c000ef          	jal	ra,8000017c <putch>
80000134:	00044503          	lbu	a0,0(s0)
80000138:	fe051ae3          	bnez	a0,8000012c <main+0x98>
8000013c:	00001417          	auipc	s0,0x1
80000140:	8c040413          	addi	s0,s0,-1856 # 800009fc <_etext+0x24>
80000144:	05300513          	li	a0,83
80000148:	00140413          	addi	s0,s0,1
8000014c:	030000ef          	jal	ra,8000017c <putch>
80000150:	00044503          	lbu	a0,0(s0)
80000154:	fe051ae3          	bnez	a0,80000148 <main+0xb4>
80000158:	00001417          	auipc	s0,0x1
8000015c:	8bc40413          	addi	s0,s0,-1860 # 80000a14 <_etext+0x3c>
80000160:	02000513          	li	a0,32
80000164:	00140413          	addi	s0,s0,1
80000168:	014000ef          	jal	ra,8000017c <putch>
8000016c:	00044503          	lbu	a0,0(s0)
80000170:	fe051ae3          	bnez	a0,80000164 <main+0xd0>
80000174:	00100513          	li	a0,1
80000178:	010000ef          	jal	ra,80000188 <halt>

8000017c <putch>:
8000017c:	a00007b7          	lui	a5,0xa0000
80000180:	3ea78c23          	sb	a0,1016(a5) # a00003f8 <_end+0x1ffdf3f8>
80000184:	00008067          	ret

80000188 <halt>:
80000188:	00100073          	ebreak
8000018c:	0000006f          	j	8000018c <halt+0x4>

80000190 <_trm_init>:
80000190:	ff410113          	addi	sp,sp,-12
80000194:	00001517          	auipc	a0,0x1
80000198:	97050513          	addi	a0,a0,-1680 # 80000b04 <mainargs>
8000019c:	00112423          	sw	ra,8(sp)
800001a0:	ef5ff0ef          	jal	ra,80000094 <main>
800001a4:	00100073          	ebreak
800001a8:	0000006f          	j	800001a8 <_trm_init+0x18>

800001ac <__am_irq_handle>:
800001ac:	00019717          	auipc	a4,0x19
800001b0:	96072703          	lw	a4,-1696(a4) # 80018b0c <user_handler>
800001b4:	00050593          	mv	a1,a0
800001b8:	08070c63          	beqz	a4,80000250 <__am_irq_handle+0xa4>
800001bc:	04052783          	lw	a5,64(a0)
800001c0:	fd410113          	addi	sp,sp,-44
800001c4:	02112423          	sw	ra,40(sp)
800001c8:	00012a23          	sw	zero,20(sp)
800001cc:	00012c23          	sw	zero,24(sp)
800001d0:	00012e23          	sw	zero,28(sp)
800001d4:	06078263          	beqz	a5,80000238 <__am_irq_handle+0x8c>
800001d8:	00b00693          	li	a3,11
800001dc:	04d79863          	bne	a5,a3,8000022c <__am_irq_handle+0x80>
800001e0:	04852783          	lw	a5,72(a0)
800001e4:	00100693          	li	a3,1
800001e8:	00d12823          	sw	a3,16(sp)
800001ec:	00478793          	addi	a5,a5,4
800001f0:	04f52423          	sw	a5,72(a0)
800001f4:	01012783          	lw	a5,16(sp)
800001f8:	00010513          	mv	a0,sp
800001fc:	00f12023          	sw	a5,0(sp)
80000200:	01412783          	lw	a5,20(sp)
80000204:	00f12223          	sw	a5,4(sp)
80000208:	01812783          	lw	a5,24(sp)
8000020c:	00f12423          	sw	a5,8(sp)
80000210:	01c12783          	lw	a5,28(sp)
80000214:	00f12623          	sw	a5,12(sp)
80000218:	000700e7          	jalr	a4
8000021c:	02050c63          	beqz	a0,80000254 <__am_irq_handle+0xa8>
80000220:	02812083          	lw	ra,40(sp)
80000224:	02c10113          	addi	sp,sp,44
80000228:	00008067          	ret
8000022c:	00400793          	li	a5,4
80000230:	00f12823          	sw	a5,16(sp)
80000234:	fc1ff06f          	j	800001f4 <__am_irq_handle+0x48>
80000238:	04852783          	lw	a5,72(a0)
8000023c:	00200693          	li	a3,2
80000240:	00d12823          	sw	a3,16(sp)
80000244:	00478793          	addi	a5,a5,4
80000248:	04f52423          	sw	a5,72(a0)
8000024c:	fa9ff06f          	j	800001f4 <__am_irq_handle+0x48>
80000250:	00008067          	ret
80000254:	01200613          	li	a2,18
80000258:	00001597          	auipc	a1,0x1
8000025c:	81c58593          	addi	a1,a1,-2020 # 80000a74 <_etext+0x9c>
80000260:	00001517          	auipc	a0,0x1
80000264:	85c50513          	addi	a0,a0,-1956 # 80000abc <_etext+0xe4>
80000268:	648000ef          	jal	ra,800008b0 <printf>
8000026c:	00100513          	li	a0,1
80000270:	f19ff0ef          	jal	ra,80000188 <halt>

80000274 <cte_init>:
80000274:	00050793          	mv	a5,a0
80000278:	00000717          	auipc	a4,0x0
8000027c:	06870713          	addi	a4,a4,104 # 800002e0 <__am_asm_trap>
80000280:	30571073          	.4byte	0x30571073
80000284:	00100513          	li	a0,1
80000288:	00019717          	auipc	a4,0x19
8000028c:	88f72223          	sw	a5,-1916(a4) # 80018b0c <user_handler>
80000290:	00008067          	ret

80000294 <kcontext>:
80000294:	000027b7          	lui	a5,0x2
80000298:	80078793          	addi	a5,a5,-2048 # 1800 <_entry_offset+0x1800>
8000029c:	ff810113          	addi	sp,sp,-8
800002a0:	fcd5ac23          	sw	a3,-40(a1)
800002a4:	fef5aa23          	sw	a5,-12(a1)
800002a8:	fec5ac23          	sw	a2,-8(a1)
800002ac:	fb058513          	addi	a0,a1,-80
800002b0:	00810113          	addi	sp,sp,8
800002b4:	00008067          	ret

800002b8 <yield>:
800002b8:	ff410113          	addi	sp,sp,-12
800002bc:	00001517          	auipc	a0,0x1
800002c0:	81c50513          	addi	a0,a0,-2020 # 80000ad8 <_etext+0x100>
800002c4:	00112423          	sw	ra,8(sp)
800002c8:	5e8000ef          	jal	ra,800008b0 <printf>
800002cc:	fff00793          	li	a5,-1
800002d0:	00000073          	ecall
800002d4:	00812083          	lw	ra,8(sp)
800002d8:	00c10113          	addi	sp,sp,12
800002dc:	00008067          	ret

800002e0 <__am_asm_trap>:
800002e0:	fb010113          	addi	sp,sp,-80
800002e4:	00112223          	sw	ra,4(sp)
800002e8:	00312623          	sw	gp,12(sp)
800002ec:	00412823          	sw	tp,16(sp)
800002f0:	00512a23          	sw	t0,20(sp)
800002f4:	00612c23          	sw	t1,24(sp)
800002f8:	00712e23          	sw	t2,28(sp)
800002fc:	02812023          	sw	s0,32(sp)
80000300:	02912223          	sw	s1,36(sp)
80000304:	02a12423          	sw	a0,40(sp)
80000308:	02b12623          	sw	a1,44(sp)
8000030c:	02c12823          	sw	a2,48(sp)
80000310:	02d12a23          	sw	a3,52(sp)
80000314:	02e12c23          	sw	a4,56(sp)
80000318:	02f12e23          	sw	a5,60(sp)
8000031c:	342022f3          	.4byte	0x342022f3
80000320:	30002373          	.4byte	0x30002373
80000324:	341023f3          	.4byte	0x341023f3
80000328:	04512023          	sw	t0,64(sp)
8000032c:	04612223          	sw	t1,68(sp)
80000330:	04712423          	sw	t2,72(sp)
80000334:	00020537          	lui	a0,0x20
80000338:	00a36333          	or	t1,t1,a0
8000033c:	30031073          	.4byte	0x30031073
80000340:	00010513          	mv	a0,sp
80000344:	e69ff0ef          	jal	ra,800001ac <__am_irq_handle>
80000348:	00050113          	mv	sp,a0
8000034c:	04412303          	lw	t1,68(sp)
80000350:	04812383          	lw	t2,72(sp)
80000354:	30031073          	.4byte	0x30031073
80000358:	34139073          	.4byte	0x34139073
8000035c:	00412083          	lw	ra,4(sp)
80000360:	00c12183          	lw	gp,12(sp)
80000364:	01012203          	lw	tp,16(sp)
80000368:	01412283          	lw	t0,20(sp)
8000036c:	01812303          	lw	t1,24(sp)
80000370:	01c12383          	lw	t2,28(sp)
80000374:	02012403          	lw	s0,32(sp)
80000378:	02412483          	lw	s1,36(sp)
8000037c:	02812503          	lw	a0,40(sp)
80000380:	02c12583          	lw	a1,44(sp)
80000384:	03012603          	lw	a2,48(sp)
80000388:	03412683          	lw	a3,52(sp)
8000038c:	03812703          	lw	a4,56(sp)
80000390:	03c12783          	lw	a5,60(sp)
80000394:	05010113          	addi	sp,sp,80
80000398:	30200073          	mret

8000039c <vsprintf>:
8000039c:	f4c10113          	addi	sp,sp,-180
800003a0:	0a112823          	sw	ra,176(sp)
800003a4:	0a812623          	sw	s0,172(sp)
800003a8:	0a912423          	sw	s1,168(sp)
800003ac:	0005c783          	lbu	a5,0(a1)
800003b0:	00050393          	mv	t2,a0
800003b4:	2a078a63          	beqz	a5,80000668 <vsprintf+0x2cc>
800003b8:	00000493          	li	s1,0
800003bc:	00060513          	mv	a0,a2
800003c0:	00038293          	mv	t0,t2
800003c4:	02500313          	li	t1,37
800003c8:	00900413          	li	s0,9
800003cc:	00048693          	mv	a3,s1
800003d0:	04678263          	beq	a5,t1,80000414 <vsprintf+0x78>
800003d4:	00168693          	addi	a3,a3,1
800003d8:	00f28023          	sb	a5,0(t0)
800003dc:	00058713          	mv	a4,a1
800003e0:	00d382b3          	add	t0,t2,a3
800003e4:	00174783          	lbu	a5,1(a4)
800003e8:	00170593          	addi	a1,a4,1
800003ec:	fe0792e3          	bnez	a5,800003d0 <vsprintf+0x34>
800003f0:	00028393          	mv	t2,t0
800003f4:	00038023          	sb	zero,0(t2)
800003f8:	0b012083          	lw	ra,176(sp)
800003fc:	0ac12403          	lw	s0,172(sp)
80000400:	00068493          	mv	s1,a3
80000404:	00048513          	mv	a0,s1
80000408:	0a812483          	lw	s1,168(sp)
8000040c:	0b410113          	addi	sp,sp,180
80000410:	00008067          	ret
80000414:	0015c783          	lbu	a5,1(a1)
80000418:	00012023          	sw	zero,0(sp)
8000041c:	03000613          	li	a2,48
80000420:	00158713          	addi	a4,a1,1
80000424:	00c79a63          	bne	a5,a2,80000438 <vsprintf+0x9c>
80000428:	0025c783          	lbu	a5,2(a1)
8000042c:	00100613          	li	a2,1
80000430:	00258713          	addi	a4,a1,2
80000434:	00c12023          	sw	a2,0(sp)
80000438:	fd078593          	addi	a1,a5,-48
8000043c:	0ff5f613          	zext.b	a2,a1
80000440:	00000493          	li	s1,0
80000444:	02c46863          	bltu	s0,a2,80000474 <vsprintf+0xd8>
80000448:	00048613          	mv	a2,s1
8000044c:	00174783          	lbu	a5,1(a4)
80000450:	00261493          	slli	s1,a2,0x2
80000454:	00c484b3          	add	s1,s1,a2
80000458:	00149493          	slli	s1,s1,0x1
8000045c:	00958633          	add	a2,a1,s1
80000460:	fd078593          	addi	a1,a5,-48
80000464:	0ff5f493          	zext.b	s1,a1
80000468:	00170713          	addi	a4,a4,1
8000046c:	fe9470e3          	bgeu	s0,s1,8000044c <vsprintf+0xb0>
80000470:	00060493          	mv	s1,a2
80000474:	06c00613          	li	a2,108
80000478:	02c78a63          	beq	a5,a2,800004ac <vsprintf+0x110>
8000047c:	07300613          	li	a2,115
80000480:	0cc78863          	beq	a5,a2,80000550 <vsprintf+0x1b4>
80000484:	06400613          	li	a2,100
80000488:	04c78c63          	beq	a5,a2,800004e0 <vsprintf+0x144>
8000048c:	00628023          	sb	t1,0(t0)
80000490:	00074603          	lbu	a2,0(a4)
80000494:	00168793          	addi	a5,a3,1
80000498:	00f387b3          	add	a5,t2,a5
8000049c:	00268693          	addi	a3,a3,2
800004a0:	00c78023          	sb	a2,0(a5)
800004a4:	00d382b3          	add	t0,t2,a3
800004a8:	f3dff06f          	j	800003e4 <vsprintf+0x48>
800004ac:	00168613          	addi	a2,a3,1
800004b0:	00174583          	lbu	a1,1(a4)
800004b4:	00c12423          	sw	a2,8(sp)
800004b8:	00c38633          	add	a2,t2,a2
800004bc:	00c12223          	sw	a2,4(sp)
800004c0:	07800613          	li	a2,120
800004c4:	2ac58063          	beq	a1,a2,80000764 <vsprintf+0x3c8>
800004c8:	00412603          	lw	a2,4(sp)
800004cc:	00628023          	sb	t1,0(t0)
800004d0:	00268693          	addi	a3,a3,2
800004d4:	00f60023          	sb	a5,0(a2)
800004d8:	00d382b3          	add	t0,t2,a3
800004dc:	f09ff06f          	j	800003e4 <vsprintf+0x48>
800004e0:	00052783          	lw	a5,0(a0) # 20000 <_entry_offset+0x20000>
800004e4:	00450613          	addi	a2,a0,4
800004e8:	00c12623          	sw	a2,12(sp)
800004ec:	00f12223          	sw	a5,4(sp)
800004f0:	18079c63          	bnez	a5,80000688 <vsprintf+0x2ec>
800004f4:	03000793          	li	a5,48
800004f8:	00100613          	li	a2,1
800004fc:	02f10423          	sb	a5,40(sp)
80000500:	00060593          	mv	a1,a2
80000504:	03000793          	li	a5,48
80000508:	0c95ce63          	blt	a1,s1,800005e4 <vsprintf+0x248>
8000050c:	00412603          	lw	a2,4(sp)
80000510:	02860613          	addi	a2,a2,40
80000514:	00260633          	add	a2,a2,sp
80000518:	00c0006f          	j	80000524 <vsprintf+0x188>
8000051c:	fff64783          	lbu	a5,-1(a2)
80000520:	00058613          	mv	a2,a1
80000524:	00f28023          	sb	a5,0(t0)
80000528:	02810793          	addi	a5,sp,40
8000052c:	fff60593          	addi	a1,a2,-1
80000530:	00128293          	addi	t0,t0,1
80000534:	fec794e3          	bne	a5,a2,8000051c <vsprintf+0x180>
80000538:	00412783          	lw	a5,4(sp)
8000053c:	00168693          	addi	a3,a3,1
80000540:	00c12503          	lw	a0,12(sp)
80000544:	00f686b3          	add	a3,a3,a5
80000548:	00d382b3          	add	t0,t2,a3
8000054c:	e99ff06f          	j	800003e4 <vsprintf+0x48>
80000550:	00052583          	lw	a1,0(a0)
80000554:	00450793          	addi	a5,a0,4
80000558:	00f12023          	sw	a5,0(sp)
8000055c:	0005c783          	lbu	a5,0(a1)
80000560:	32078263          	beqz	a5,80000884 <vsprintf+0x4e8>
80000564:	00000613          	li	a2,0
80000568:	00160613          	addi	a2,a2,1
8000056c:	00c58533          	add	a0,a1,a2
80000570:	00054503          	lbu	a0,0(a0)
80000574:	fe051ae3          	bnez	a0,80000568 <vsprintf+0x1cc>
80000578:	00068513          	mv	a0,a3
8000057c:	02964863          	blt	a2,s1,800005ac <vsprintf+0x210>
80000580:	00050693          	mv	a3,a0
80000584:	00078613          	mv	a2,a5
80000588:	00168693          	addi	a3,a3,1
8000058c:	00d382b3          	add	t0,t2,a3
80000590:	40a687b3          	sub	a5,a3,a0
80000594:	fec28fa3          	sb	a2,-1(t0)
80000598:	00f587b3          	add	a5,a1,a5
8000059c:	0007c603          	lbu	a2,0(a5)
800005a0:	fe0614e3          	bnez	a2,80000588 <vsprintf+0x1ec>
800005a4:	00012503          	lw	a0,0(sp)
800005a8:	e3dff06f          	j	800003e4 <vsprintf+0x48>
800005ac:	40c484b3          	sub	s1,s1,a2
800005b0:	fc9058e3          	blez	s1,80000580 <vsprintf+0x1e4>
800005b4:	00928633          	add	a2,t0,s1
800005b8:	02000793          	li	a5,32
800005bc:	00f28023          	sb	a5,0(t0)
800005c0:	00128293          	addi	t0,t0,1
800005c4:	fec29ce3          	bne	t0,a2,800005bc <vsprintf+0x220>
800005c8:	0005c783          	lbu	a5,0(a1)
800005cc:	00d48533          	add	a0,s1,a3
800005d0:	fa0798e3          	bnez	a5,80000580 <vsprintf+0x1e4>
800005d4:	00050693          	mv	a3,a0
800005d8:	00d382b3          	add	t0,t2,a3
800005dc:	00012503          	lw	a0,0(sp)
800005e0:	e05ff06f          	j	800003e4 <vsprintf+0x48>
800005e4:	40b48633          	sub	a2,s1,a1
800005e8:	00012583          	lw	a1,0(sp)
800005ec:	02058663          	beqz	a1,80000618 <vsprintf+0x27c>
800005f0:	f0c05ee3          	blez	a2,8000050c <vsprintf+0x170>
800005f4:	00d60633          	add	a2,a2,a3
800005f8:	00c386b3          	add	a3,t2,a2
800005fc:	03000593          	li	a1,48
80000600:	00b28023          	sb	a1,0(t0)
80000604:	00128293          	addi	t0,t0,1
80000608:	fe569ae3          	bne	a3,t0,800005fc <vsprintf+0x260>
8000060c:	00060693          	mv	a3,a2
80000610:	00c382b3          	add	t0,t2,a2
80000614:	ef9ff06f          	j	8000050c <vsprintf+0x170>
80000618:	eec05ae3          	blez	a2,8000050c <vsprintf+0x170>
8000061c:	00000593          	li	a1,0
80000620:	02000493          	li	s1,32
80000624:	00b28533          	add	a0,t0,a1
80000628:	00950023          	sb	s1,0(a0)
8000062c:	00158593          	addi	a1,a1,1
80000630:	fec5cae3          	blt	a1,a2,80000624 <vsprintf+0x288>
80000634:	00168693          	addi	a3,a3,1
80000638:	00000593          	li	a1,0
8000063c:	00c05463          	blez	a2,80000644 <vsprintf+0x2a8>
80000640:	fff60593          	addi	a1,a2,-1
80000644:	00d58633          	add	a2,a1,a3
80000648:	00012683          	lw	a3,0(sp)
8000064c:	fc0680e3          	beqz	a3,8000060c <vsprintf+0x270>
80000650:	00160693          	addi	a3,a2,1
80000654:	02d00593          	li	a1,45
80000658:	00c38633          	add	a2,t2,a2
8000065c:	00b60023          	sb	a1,0(a2)
80000660:	00d382b3          	add	t0,t2,a3
80000664:	ea9ff06f          	j	8000050c <vsprintf+0x170>
80000668:	00038023          	sb	zero,0(t2)
8000066c:	0b012083          	lw	ra,176(sp)
80000670:	0ac12403          	lw	s0,172(sp)
80000674:	00000493          	li	s1,0
80000678:	00048513          	mv	a0,s1
8000067c:	0a812483          	lw	s1,168(sp)
80000680:	0b410113          	addi	sp,sp,180
80000684:	00008067          	ret
80000688:	00412783          	lw	a5,4(sp)
8000068c:	00012823          	sw	zero,16(sp)
80000690:	0007da63          	bgez	a5,800006a4 <vsprintf+0x308>
80000694:	40f007b3          	neg	a5,a5
80000698:	00f12223          	sw	a5,4(sp)
8000069c:	00100793          	li	a5,1
800006a0:	00f12823          	sw	a5,16(sp)
800006a4:	00412603          	lw	a2,4(sp)
800006a8:	00000793          	li	a5,0
800006ac:	00912a23          	sw	s1,20(sp)
800006b0:	00e12c23          	sw	a4,24(sp)
800006b4:	00078493          	mv	s1,a5
800006b8:	00d12e23          	sw	a3,28(sp)
800006bc:	02712023          	sw	t2,32(sp)
800006c0:	02512223          	sw	t0,36(sp)
800006c4:	00a00593          	li	a1,10
800006c8:	00060513          	mv	a0,a2
800006cc:	00c12423          	sw	a2,8(sp)
800006d0:	2d8000ef          	jal	ra,800009a8 <__modsi3>
800006d4:	00000797          	auipc	a5,0x0
800006d8:	41078793          	addi	a5,a5,1040 # 80000ae4 <_etext+0x10c>
800006dc:	00a78533          	add	a0,a5,a0
800006e0:	00054783          	lbu	a5,0(a0)
800006e4:	00812603          	lw	a2,8(sp)
800006e8:	00912223          	sw	s1,4(sp)
800006ec:	00148493          	addi	s1,s1,1
800006f0:	02848713          	addi	a4,s1,40
800006f4:	00270733          	add	a4,a4,sp
800006f8:	00060513          	mv	a0,a2
800006fc:	fef70fa3          	sb	a5,-1(a4)
80000700:	00a00593          	li	a1,10
80000704:	00f12423          	sw	a5,8(sp)
80000708:	21c000ef          	jal	ra,80000924 <__divsi3>
8000070c:	00812783          	lw	a5,8(sp)
80000710:	00050613          	mv	a2,a0
80000714:	02500313          	li	t1,37
80000718:	fa0516e3          	bnez	a0,800006c4 <vsprintf+0x328>
8000071c:	01012603          	lw	a2,16(sp)
80000720:	00048593          	mv	a1,s1
80000724:	01812703          	lw	a4,24(sp)
80000728:	01412483          	lw	s1,20(sp)
8000072c:	01c12683          	lw	a3,28(sp)
80000730:	02012383          	lw	t2,32(sp)
80000734:	02412283          	lw	t0,36(sp)
80000738:	dc0608e3          	beqz	a2,80000508 <vsprintf+0x16c>
8000073c:	00412603          	lw	a2,4(sp)
80000740:	00260613          	addi	a2,a2,2
80000744:	10964663          	blt	a2,s1,80000850 <vsprintf+0x4b4>
80000748:	00012603          	lw	a2,0(sp)
8000074c:	12060863          	beqz	a2,8000087c <vsprintf+0x4e0>
80000750:	00168693          	addi	a3,a3,1
80000754:	02d00613          	li	a2,45
80000758:	00c28023          	sb	a2,0(t0)
8000075c:	00d382b3          	add	t0,t2,a3
80000760:	dadff06f          	j	8000050c <vsprintf+0x170>
80000764:	00052583          	lw	a1,0(a0)
80000768:	00450793          	addi	a5,a0,4
8000076c:	00f12623          	sw	a5,12(sp)
80000770:	08059e63          	bnez	a1,8000080c <vsprintf+0x470>
80000774:	03000793          	li	a5,48
80000778:	02f10423          	sb	a5,40(sp)
8000077c:	00012223          	sw	zero,4(sp)
80000780:	03000793          	li	a5,48
80000784:	00100613          	li	a2,1
80000788:	02965e63          	bge	a2,s1,800007c4 <vsprintf+0x428>
8000078c:	40c484b3          	sub	s1,s1,a2
80000790:	00012603          	lw	a2,0(sp)
80000794:	0e060e63          	beqz	a2,80000890 <vsprintf+0x4f4>
80000798:	00028613          	mv	a2,t0
8000079c:	009285b3          	add	a1,t0,s1
800007a0:	02905263          	blez	s1,800007c4 <vsprintf+0x428>
800007a4:	03000513          	li	a0,48
800007a8:	00a60023          	sb	a0,0(a2)
800007ac:	00160613          	addi	a2,a2,1
800007b0:	feb61ae3          	bne	a2,a1,800007a4 <vsprintf+0x408>
800007b4:	00d486b3          	add	a3,s1,a3
800007b8:	00d382b3          	add	t0,t2,a3
800007bc:	00168693          	addi	a3,a3,1
800007c0:	00d12423          	sw	a3,8(sp)
800007c4:	00412683          	lw	a3,4(sp)
800007c8:	02868693          	addi	a3,a3,40
800007cc:	002686b3          	add	a3,a3,sp
800007d0:	00c0006f          	j	800007dc <vsprintf+0x440>
800007d4:	fff6c783          	lbu	a5,-1(a3)
800007d8:	00060693          	mv	a3,a2
800007dc:	00f28023          	sb	a5,0(t0)
800007e0:	02810793          	addi	a5,sp,40
800007e4:	fff68613          	addi	a2,a3,-1
800007e8:	00128293          	addi	t0,t0,1
800007ec:	fed794e3          	bne	a5,a3,800007d4 <vsprintf+0x438>
800007f0:	00812783          	lw	a5,8(sp)
800007f4:	00412683          	lw	a3,4(sp)
800007f8:	00c12503          	lw	a0,12(sp)
800007fc:	00170713          	addi	a4,a4,1
80000800:	00d786b3          	add	a3,a5,a3
80000804:	00d382b3          	add	t0,t2,a3
80000808:	bddff06f          	j	800003e4 <vsprintf+0x48>
8000080c:	00000613          	li	a2,0
80000810:	00912823          	sw	s1,16(sp)
80000814:	00f5f793          	andi	a5,a1,15
80000818:	00000517          	auipc	a0,0x0
8000081c:	2d850513          	addi	a0,a0,728 # 80000af0 <_etext+0x118>
80000820:	00f507b3          	add	a5,a0,a5
80000824:	0007c783          	lbu	a5,0(a5)
80000828:	00060493          	mv	s1,a2
8000082c:	00160613          	addi	a2,a2,1
80000830:	02860513          	addi	a0,a2,40
80000834:	00250533          	add	a0,a0,sp
80000838:	fef50fa3          	sb	a5,-1(a0)
8000083c:	0045d593          	srli	a1,a1,0x4
80000840:	fc059ae3          	bnez	a1,80000814 <vsprintf+0x478>
80000844:	00912223          	sw	s1,4(sp)
80000848:	01012483          	lw	s1,16(sp)
8000084c:	f3dff06f          	j	80000788 <vsprintf+0x3ec>
80000850:	00012583          	lw	a1,0(sp)
80000854:	40c48633          	sub	a2,s1,a2
80000858:	00058c63          	beqz	a1,80000870 <vsprintf+0x4d4>
8000085c:	00168693          	addi	a3,a3,1
80000860:	02d00593          	li	a1,45
80000864:	00b28023          	sb	a1,0(t0)
80000868:	00d382b3          	add	t0,t2,a3
8000086c:	d85ff06f          	j	800005f0 <vsprintf+0x254>
80000870:	01012583          	lw	a1,16(sp)
80000874:	00b12023          	sw	a1,0(sp)
80000878:	dac042e3          	bgtz	a2,8000061c <vsprintf+0x280>
8000087c:	00068613          	mv	a2,a3
80000880:	dd1ff06f          	j	80000650 <vsprintf+0x2b4>
80000884:	d20498e3          	bnez	s1,800005b4 <vsprintf+0x218>
80000888:	00012503          	lw	a0,0(sp)
8000088c:	b59ff06f          	j	800003e4 <vsprintf+0x48>
80000890:	00028613          	mv	a2,t0
80000894:	00928533          	add	a0,t0,s1
80000898:	02000593          	li	a1,32
8000089c:	f29054e3          	blez	s1,800007c4 <vsprintf+0x428>
800008a0:	00b60023          	sb	a1,0(a2)
800008a4:	00160613          	addi	a2,a2,1
800008a8:	fec51ce3          	bne	a0,a2,800008a0 <vsprintf+0x504>
800008ac:	f09ff06f          	j	800007b4 <vsprintf+0x418>

800008b0 <printf>:
800008b0:	f5810113          	addi	sp,sp,-168
800008b4:	09410313          	addi	t1,sp,148
800008b8:	08b12a23          	sw	a1,148(sp)
800008bc:	08c12c23          	sw	a2,152(sp)
800008c0:	00050593          	mv	a1,a0
800008c4:	00030613          	mv	a2,t1
800008c8:	00810513          	addi	a0,sp,8
800008cc:	08112823          	sw	ra,144(sp)
800008d0:	08812623          	sw	s0,140(sp)
800008d4:	08912423          	sw	s1,136(sp)
800008d8:	08d12e23          	sw	a3,156(sp)
800008dc:	0ae12023          	sw	a4,160(sp)
800008e0:	0af12223          	sw	a5,164(sp)
800008e4:	00612223          	sw	t1,4(sp)
800008e8:	ab5ff0ef          	jal	ra,8000039c <vsprintf>
800008ec:	00a12023          	sw	a0,0(sp)
800008f0:	00a05e63          	blez	a0,8000090c <printf+0x5c>
800008f4:	00810493          	addi	s1,sp,8
800008f8:	00a48433          	add	s0,s1,a0
800008fc:	0004c503          	lbu	a0,0(s1)
80000900:	00148493          	addi	s1,s1,1
80000904:	879ff0ef          	jal	ra,8000017c <putch>
80000908:	fe849ae3          	bne	s1,s0,800008fc <printf+0x4c>
8000090c:	09012083          	lw	ra,144(sp)
80000910:	08c12403          	lw	s0,140(sp)
80000914:	00012503          	lw	a0,0(sp)
80000918:	08812483          	lw	s1,136(sp)
8000091c:	0a810113          	addi	sp,sp,168
80000920:	00008067          	ret

80000924 <__divsi3>:
80000924:	06054063          	bltz	a0,80000984 <__umodsi3+0x10>
80000928:	0605c663          	bltz	a1,80000994 <__umodsi3+0x20>

8000092c <__hidden___udivsi3>:
8000092c:	00058613          	mv	a2,a1
80000930:	00050593          	mv	a1,a0
80000934:	fff00513          	li	a0,-1
80000938:	02060c63          	beqz	a2,80000970 <__hidden___udivsi3+0x44>
8000093c:	00100693          	li	a3,1
80000940:	00b67a63          	bgeu	a2,a1,80000954 <__hidden___udivsi3+0x28>
80000944:	00c05863          	blez	a2,80000954 <__hidden___udivsi3+0x28>
80000948:	00161613          	slli	a2,a2,0x1
8000094c:	00169693          	slli	a3,a3,0x1
80000950:	feb66ae3          	bltu	a2,a1,80000944 <__hidden___udivsi3+0x18>
80000954:	00000513          	li	a0,0
80000958:	00c5e663          	bltu	a1,a2,80000964 <__hidden___udivsi3+0x38>
8000095c:	40c585b3          	sub	a1,a1,a2
80000960:	00d56533          	or	a0,a0,a3
80000964:	0016d693          	srli	a3,a3,0x1
80000968:	00165613          	srli	a2,a2,0x1
8000096c:	fe0696e3          	bnez	a3,80000958 <__hidden___udivsi3+0x2c>
80000970:	00008067          	ret

80000974 <__umodsi3>:
80000974:	00008293          	mv	t0,ra
80000978:	fb5ff0ef          	jal	ra,8000092c <__hidden___udivsi3>
8000097c:	00058513          	mv	a0,a1
80000980:	00028067          	jr	t0
80000984:	40a00533          	neg	a0,a0
80000988:	00b04863          	bgtz	a1,80000998 <__umodsi3+0x24>
8000098c:	40b005b3          	neg	a1,a1
80000990:	f9dff06f          	j	8000092c <__hidden___udivsi3>
80000994:	40b005b3          	neg	a1,a1
80000998:	00008293          	mv	t0,ra
8000099c:	f91ff0ef          	jal	ra,8000092c <__hidden___udivsi3>
800009a0:	40a00533          	neg	a0,a0
800009a4:	00028067          	jr	t0

800009a8 <__modsi3>:
800009a8:	00008293          	mv	t0,ra
800009ac:	0005ca63          	bltz	a1,800009c0 <__modsi3+0x18>
800009b0:	00054c63          	bltz	a0,800009c8 <__modsi3+0x20>
800009b4:	f79ff0ef          	jal	ra,8000092c <__hidden___udivsi3>
800009b8:	00058513          	mv	a0,a1
800009bc:	00028067          	jr	t0
800009c0:	40b005b3          	neg	a1,a1
800009c4:	fe0558e3          	bgez	a0,800009b4 <__modsi3+0xc>
800009c8:	40a00533          	neg	a0,a0
800009cc:	f61ff0ef          	jal	ra,8000092c <__hidden___udivsi3>
800009d0:	40b00533          	neg	a0,a1
800009d4:	00028067          	jr	t0
